target datalayout = "e-m:e-p270:32:32-p271:32:32-p272:64:64-i64:64-i128:128-f80:128-n8:16:32:64-S128"
target triple = "x86_64-pc-linux-gnu"

%struct.darktable_t = type { %struct.dt_codepath_t, i32, i32, ptr, ptr, ptr, ptr, ptr, ptr, ptr, ptr, ptr, ptr, ptr, ptr, ptr, ptr, ptr, ptr, ptr, ptr, ptr, ptr, ptr, ptr, ptr, ptr, ptr, ptr, ptr, [64 x %struct.dt_pthread_mutex_t], %struct.dt_pthread_mutex_t, %struct.dt_pthread_mutex_t, %struct.dt_pthread_mutex_t, %struct.dt_pthread_mutex_t, %struct.dt_pthread_mutex_t, ptr, ptr, ptr, ptr, ptr, ptr, ptr, ptr, ptr, ptr, ptr, ptr, ptr, %struct.dt_lua_state_t, ptr, double, ptr, i32, [47 x i32], i32, i32, ptr, ptr, %struct.dt_sys_resources_t, %struct.dt_backthumb_t, %struct.dt_gimp_t }
%struct.dt_codepath_t = type { i8, [3 x i8] }
%struct.dt_pthread_mutex_t = type { %union.pthread_mutex_t }
%union.pthread_mutex_t = type { %struct.__pthread_mutex_s }
%struct.__pthread_mutex_s = type { i32, i32, i32, i32, i32, i16, i16, %struct.__pthread_internal_list }
%struct.__pthread_internal_list = type { ptr, ptr }
%struct.dt_lua_state_t = type { i32 }
%struct.dt_sys_resources_t = type { i64, i64, ptr, ptr, i32 }
%struct.dt_backthumb_t = type { double, double, i32, i32, i32, i32 }
%struct.dt_gimp_t = type { i32, ptr, ptr, i32, i32 }
%struct._GdkRGBA = type { double, double, double, double }
%struct._GtkBorder = type { i16, i16, i16, i16 }
%struct.dt_bauhaus_t = type { ptr, %struct.dt_bauhaus_popup_t, ptr, float, float, i32, i32, float, [180 x i8], i32, i32, [2 x i32], i32, ptr, ptr, float, float, float, float, float, ptr, ptr, i32, i32, i32, %struct._GdkRGBA, %struct._GdkRGBA, %struct._GdkRGBA, %struct._GdkRGBA, %struct._GdkRGBA, %struct._GdkRGBA, %struct._GdkRGBA, %struct._GdkRGBA, %struct._GdkRGBA, %struct._GdkRGBA, %struct._GdkRGBA, %struct._GdkRGBA, %struct._GdkRGBA, %struct._GdkRGBA, %struct._GdkRGBA, [3 x %struct._GdkRGBA], [5 x %struct._GdkRGBA] }
%struct.dt_bauhaus_popup_t = type { ptr, ptr, %struct._GtkBorder, %struct._cairo_rectangle_int, i32, i32, i32 }
%struct._cairo_rectangle_int = type { i32, i32, i32, i32 }

@darktable = external global %struct.darktable_t, align 8

; Function Attrs: nounwind uwtable
define internal i32 @_cursor_timeout_callback(ptr noundef %0) #0 {
  %2 = alloca i32, align 4
  %3 = alloca ptr, align 8
  %4 = alloca ptr, align 8
  %5 = alloca i32, align 4
  store ptr %0, ptr %3, align 8, !tbaa !32
  call void @llvm.lifetime.start.p0(i64 8, ptr %4) #13
  %6 = load ptr, ptr getelementptr inbounds nuw (%struct.darktable_t, ptr @darktable, i32 0, i32 17), align 8, !tbaa !78
  store ptr %6, ptr %4, align 8, !tbaa !79
  %7 = load ptr, ptr %4, align 8, !tbaa !79
  %8 = getelementptr inbounds nuw %struct.dt_bauhaus_t, ptr %7, i32 0, i32 24
  %9 = load i32, ptr %8, align 8, !tbaa !359
  %10 = icmp sgt i32 %9, 0
  br i1 %10, label %11, label %16

11:                                               ; preds = %1
  %12 = load ptr, ptr %4, align 8, !tbaa !79
  %13 = getelementptr inbounds nuw %struct.dt_bauhaus_t, ptr %12, i32 0, i32 24
  %14 = load i32, ptr %13, align 8, !tbaa !359
  %15 = add nsw i32 %14, -1
  store i32 %15, ptr %13, align 8, !tbaa !359
  br label %16

16:                                               ; preds = %11, %1
  %17 = load ptr, ptr %4, align 8, !tbaa !79
  %18 = getelementptr inbounds nuw %struct.dt_bauhaus_t, ptr %17, i32 0, i32 23
  %19 = load i32, ptr %18, align 4, !tbaa !182
  %20 = icmp ne i32 %19, 0
  %21 = xor i1 %20, true
  %22 = zext i1 %21 to i32
  %23 = load ptr, ptr %4, align 8, !tbaa !79
  %24 = getelementptr inbounds nuw %struct.dt_bauhaus_t, ptr %23, i32 0, i32 23
  store i32 %22, ptr %24, align 4, !tbaa !182
  %25 = load ptr, ptr %4, align 8, !tbaa !79
  %26 = getelementptr inbounds nuw %struct.dt_bauhaus_t, ptr %25, i32 0, i32 1
  %27 = getelementptr inbounds nuw %struct.dt_bauhaus_popup_t, ptr %26, i32 0, i32 1
  %28 = load ptr, ptr %27, align 8, !tbaa !202
  call void @gtk_widget_queue_draw(ptr noundef %28)
  %29 = load ptr, ptr %4, align 8, !tbaa !79
  %30 = getelementptr inbounds nuw %struct.dt_bauhaus_t, ptr %29, i32 0, i32 24
  %31 = load i32, ptr %30, align 8, !tbaa !359
  %32 = icmp ne i32 %31, 0
  br i1 %32, label %33, label %34

33:                                               ; preds = %16
  store i32 1, ptr %2, align 4
  store i32 1, ptr %5, align 4
  br label %37

34:                                               ; preds = %16
  %35 = load ptr, ptr %4, align 8, !tbaa !79
  %36 = getelementptr inbounds nuw %struct.dt_bauhaus_t, ptr %35, i32 0, i32 22
  store i32 0, ptr %36, align 8, !tbaa !360
  store i32 0, ptr %2, align 4
  store i32 1, ptr %5, align 4
  br label %37

37:                                               ; preds = %34, %33
  call void @llvm.lifetime.end.p0(i64 8, ptr %4) #13
  %38 = load i32, ptr %2, align 4
  ret i32 %38
}