; Function Attrs: nounwind uwtable
define internal range(i32 0, 2) i32 @_cursor_timeout_callback(ptr readnone captures(none) %0) #0 {
  %2 = load ptr, ptr getelementptr inbounds nuw (i8, ptr @darktable, i64 128), align 8, !tbaa !67
  %3 = getelementptr inbounds nuw i8, ptr %2, i64 360
  %4 = load i32, ptr %3, align 8, !tbaa !288
  %5 = icmp sgt i32 %4, 0
  br i1 %5, label %6, label %8

6:                                                ; preds = %1
  %7 = add nsw i32 %4, -1
  store i32 %7, ptr %3, align 8, !tbaa !288
  br label %8

8:                                                ; preds = %6, %1
  %9 = getelementptr inbounds nuw i8, ptr %2, i64 356
  %10 = load i32, ptr %9, align 4, !tbaa !109
  %.not = icmp eq i32 %10, 0
  %11 = zext i1 %.not to i32
  store i32 %11, ptr %9, align 4, !tbaa !109
  %12 = getelementptr inbounds nuw i8, ptr %2, i64 16
  %13 = load ptr, ptr %12, align 8, !tbaa !168
  tail call void @gtk_widget_queue_draw(ptr noundef %13) #19
  %14 = load i32, ptr %3, align 8, !tbaa !288
  %.not8 = icmp eq i32 %14, 0
  br i1 %.not8, label %15, label %17

15:                                               ; preds = %8
  %16 = getelementptr inbounds nuw i8, ptr %2, i64 352
  store i32 0, ptr %16, align 8, !tbaa !108
  br label %17

17:                                               ; preds = %8, %15
  %.0 = phi i32 [ 0, %15 ], [ 1, %8 ]
  ret i32 %.0
}